target datalayout = "e-m:e-p270:32:32-p271:32:32-p272:64:64-i64:64-i128:128-f80:128-n8:16:32:64-S128"
target triple = "x86_64-pc-linux-gnu"

%"class.cv::Mat" = type { i32, i32, i32, i32, ptr, ptr, ptr, ptr, ptr, ptr, %"struct.cv::MatSize", %"struct.cv::MatStep" }
%"struct.cv::MatSize" = type { ptr }
%"struct.cv::MatStep" = type { ptr, [2 x i64] }
%"class.cv::Range" = type { i32, i32 }

; Function Attrs: inlinehint mustprogress uwtable
define linkonce_odr hidden void @_ZNK2cv3MatclENS_5RangeES1_(ptr dead_on_unwind noalias writable sret(%"class.cv::Mat") align 8 %0, ptr noundef nonnull align 8 dereferenceable(96) %1, i64 %2, i64 %3) #7 comdat align 2 {
  %5 = alloca ptr, align 8
  %6 = alloca %"class.cv::Range", align 4
  %7 = alloca %"class.cv::Range", align 4
  %8 = alloca ptr, align 8
  store ptr %0, ptr %5, align 8
  store i64 %2, ptr %6, align 4
  store i64 %3, ptr %7, align 4
  store ptr %1, ptr %8, align 8, !tbaa !47
  %9 = load ptr, ptr %8, align 8
  call void @_ZN2cv3MatC1ERKS0_RKNS_5RangeES5_(ptr noundef nonnull align 8 dereferenceable(96) %0, ptr noundef nonnull align 8 dereferenceable(96) %9, ptr noundef nonnull align 4 dereferenceable(8) %6, ptr noundef nonnull align 4 dereferenceable(8) %7)
  ret void
}

; Function Attrs: inlinehint mustprogress nounwind uwtable
define linkonce_odr hidden void @_ZN2cv5RangeC2Eii(ptr noundef nonnull align 4 dereferenceable(8) %0, i32 noundef %1, i32 noundef %2) unnamed_addr #10 comdat align 2 {
  %4 = alloca ptr, align 8
  %5 = alloca i32, align 4
  %6 = alloca i32, align 4
  store ptr %0, ptr %4, align 8, !tbaa !108
  store i32 %1, ptr %5, align 4, !tbaa !10
  store i32 %2, ptr %6, align 4, !tbaa !10
  %7 = load ptr, ptr %4, align 8
  %8 = getelementptr inbounds nuw %"class.cv::Range", ptr %7, i32 0, i32 0
  %9 = load i32, ptr %5, align 4, !tbaa !10
  store i32 %9, ptr %8, align 4, !tbaa !110
  %10 = getelementptr inbounds nuw %"class.cv::Range", ptr %7, i32 0, i32 1
  %11 = load i32, ptr %6, align 4, !tbaa !10
  store i32 %11, ptr %10, align 4, !tbaa !112
  ret void
}

; Function Attrs: inlinehint mustprogress uwtable
define linkonce_odr hidden i64 @_ZN2cv5Range3allEv() #7 comdat align 2 {
  %1 = alloca %"class.cv::Range", align 4
  call void @_ZN2cv5RangeC2Eii(ptr noundef nonnull align 4 dereferenceable(8) %1, i32 noundef -2147483648, i32 noundef 2147483647)
  %2 = load i64, ptr %1, align 4
  ret i64 %2
}

; Function Attrs: mustprogress uwtable
define hidden void @_ZN2cv8ximgproc11DTFilterCPU15getWExtendedMatEiiiiii(ptr dead_on_unwind noalias writable sret(%"class.cv::Mat") align 8 %0, i32 noundef %1, i32 noundef %2, i32 noundef %3, i32 noundef %4, i32 noundef %5, i32 noundef %6) #4 align 2 personality ptr @__gxx_personality_v0 {
  %8 = alloca ptr, align 8
  %9 = alloca i32, align 4
  %10 = alloca i32, align 4
  %11 = alloca i32, align 4
  %12 = alloca i32, align 4
  %13 = alloca i32, align 4
  %14 = alloca i32, align 4
  %15 = alloca i32, align 4
  %16 = alloca %"class.cv::Mat", align 8
  %17 = alloca %"class.cv::Range", align 4
  %18 = alloca ptr, align 8
  %19 = alloca i32, align 4
  %20 = alloca %"class.cv::Range", align 4
  store ptr %0, ptr %8, align 8
  store i32 %1, ptr %9, align 4, !tbaa !10
  store i32 %2, ptr %10, align 4, !tbaa !10
  store i32 %3, ptr %11, align 4, !tbaa !10
  store i32 %4, ptr %12, align 4, !tbaa !10
  store i32 %5, ptr %13, align 4, !tbaa !10
  store i32 %6, ptr %14, align 4, !tbaa !10
  call void @llvm.lifetime.start.p0(i64 4, ptr %15) #3
  %21 = load i32, ptr %10, align 4, !tbaa !10
  %22 = load i32, ptr %12, align 4, !tbaa !10
  %23 = add nsw i32 %21, %22
  %24 = load i32, ptr %13, align 4, !tbaa !10
  %25 = add nsw i32 %23, %24
  store i32 %25, ptr %15, align 4, !tbaa !10
  %26 = load i32, ptr %14, align 4, !tbaa !10
  %27 = icmp sgt i32 %26, 0
  br i1 %27, label %28, label %39

28:                                               ; preds = %7
  %29 = load i32, ptr %15, align 4, !tbaa !10
  %30 = load i32, ptr %14, align 4, !tbaa !10
  %31 = add nsw i32 %29, %30
  %32 = sub nsw i32 %31, 1
  %33 = load i32, ptr %14, align 4, !tbaa !10
  %34 = sdiv i32 %32, %33
  %35 = load i32, ptr %14, align 4, !tbaa !10
  %36 = mul nsw i32 %34, %35
  %37 = load i32, ptr %15, align 4, !tbaa !10
  %38 = add nsw i32 %37, %36
  store i32 %38, ptr %15, align 4, !tbaa !10
  br label %39

39:                                               ; preds = %28, %7
  call void @llvm.lifetime.start.p0(i64 96, ptr %16) #3
  %40 = load i32, ptr %9, align 4, !tbaa !10
  %41 = load i32, ptr %15, align 4, !tbaa !10
  %42 = load i32, ptr %11, align 4, !tbaa !10
  call void @_ZN2cv3MatC1Eiii(ptr noundef nonnull align 8 dereferenceable(96) %16, i32 noundef %40, i32 noundef %41, i32 noundef %42)
  %43 = invoke i64 @_ZN2cv5Range3allEv()
          to label %44 unwind label %53

44:                                               ; preds = %39
  store i64 %43, ptr %17, align 4
  %45 = load i32, ptr %12, align 4, !tbaa !10
  %46 = load i32, ptr %10, align 4, !tbaa !10
  %47 = load i32, ptr %12, align 4, !tbaa !10
  %48 = add nsw i32 %46, %47
  invoke void @_ZN2cv5RangeC2Eii(ptr noundef nonnull align 4 dereferenceable(8) %20, i32 noundef %45, i32 noundef %48)
          to label %49 unwind label %53

49:                                               ; preds = %44
  %50 = load i64, ptr %17, align 4
  %51 = load i64, ptr %20, align 4
  invoke void @_ZNK2cv3MatclENS_5RangeES1_(ptr dead_on_unwind writable sret(%"class.cv::Mat") align 8 %0, ptr noundef nonnull align 8 dereferenceable(96) %16, i64 %50, i64 %51)
          to label %52 unwind label %53

52:                                               ; preds = %49
  call void @_ZN2cv3MatD1Ev(ptr noundef nonnull align 8 dereferenceable(96) %16) #3
  call void @llvm.lifetime.end.p0(i64 96, ptr %16) #3
  call void @llvm.lifetime.end.p0(i64 4, ptr %15) #3
  ret void

53:                                               ; preds = %49, %44, %39
  %54 = landingpad { ptr, i32 }
          cleanup
  %55 = extractvalue { ptr, i32 } %54, 0
  store ptr %55, ptr %18, align 8
  %56 = extractvalue { ptr, i32 } %54, 1
  store i32 %56, ptr %19, align 4
  call void @_ZN2cv3MatD1Ev(ptr noundef nonnull align 8 dereferenceable(96) %16) #3
  call void @llvm.lifetime.end.p0(i64 96, ptr %16) #3
  call void @llvm.lifetime.end.p0(i64 4, ptr %15) #3
  br label %57

57:                                               ; preds = %53
  %58 = load ptr, ptr %18, align 8
  %59 = load i32, ptr %19, align 4
  %60 = insertvalue { ptr, i32 } poison, ptr %58, 0
  %61 = insertvalue { ptr, i32 } %60, i32 %59, 1
  resume { ptr, i32 } %61
}