; Function Attrs: mustprogress uwtable
define hidden void @_ZN2cv8ximgproc11DTFilterCPU15getWExtendedMatEiiiiii(ptr dead_on_unwind noalias writable sret(%"class.cv::Mat") align 8 %0, i32 noundef %1, i32 noundef %2, i32 noundef %3, i32 noundef %4, i32 noundef %5, i32 noundef %6) local_unnamed_addr #3 align 2 personality ptr @__gxx_personality_v0 {
  %8 = alloca %"class.cv::Range", align 8
  %9 = alloca %"class.cv::Range", align 8
  %10 = alloca %"class.cv::Mat", align 8
  %11 = add nsw i32 %4, %2
  %12 = add nsw i32 %11, %5
  %13 = icmp sgt i32 %6, 0
  br i1 %13, label %14, label %20

14:                                               ; preds = %7
  %15 = add nsw i32 %6, -1
  %16 = add i32 %15, %12
  %17 = srem i32 %16, %6
  %18 = add i32 %16, %12
  %19 = sub i32 %18, %17
  br label %20

20:                                               ; preds = %7, %14
  %.0 = phi i32 [ %19, %14 ], [ %12, %7 ]
  call void @llvm.lifetime.start.p0(i64 96, ptr nonnull %10) #24
  call void @_ZN2cv3MatC1Eiii(ptr noundef nonnull align 8 dereferenceable(96) %10, i32 noundef %1, i32 noundef %.0, i32 noundef %3)
  %.sroa.2.0.insert.ext = zext i32 %11 to i64
  %.sroa.2.0.insert.shift = shl nuw i64 %.sroa.2.0.insert.ext, 32
  %.sroa.0.0.insert.ext = zext i32 %4 to i64
  %.sroa.0.0.insert.insert = or disjoint i64 %.sroa.2.0.insert.shift, %.sroa.0.0.insert.ext
  call void @llvm.lifetime.start.p0(i64 8, ptr nonnull %8)
  call void @llvm.lifetime.start.p0(i64 8, ptr nonnull %9)
  store i64 9223372034707292160, ptr %8, align 8, !noalias !264
  store i64 %.sroa.0.0.insert.insert, ptr %9, align 8, !noalias !264
  invoke void @_ZN2cv3MatC1ERKS0_RKNS_5RangeES5_(ptr noundef nonnull align 8 dereferenceable(96) %0, ptr noundef nonnull align 8 dereferenceable(96) %10, ptr noundef nonnull align 4 dereferenceable(8) %8, ptr noundef nonnull align 4 dereferenceable(8) %9)
          to label %21 unwind label %22

21:                                               ; preds = %20
  call void @llvm.lifetime.end.p0(i64 8, ptr nonnull %8)
  call void @llvm.lifetime.end.p0(i64 8, ptr nonnull %9)
  call void @_ZN2cv3MatD1Ev(ptr noundef nonnull align 8 dereferenceable(96) %10) #24
  call void @llvm.lifetime.end.p0(i64 96, ptr nonnull %10) #24
  ret void

22:                                               ; preds = %20
  %23 = landingpad { ptr, i32 }
          cleanup
  call void @_ZN2cv3MatD1Ev(ptr noundef nonnull align 8 dereferenceable(96) %10) #24
  call void @llvm.lifetime.end.p0(i64 96, ptr nonnull %10) #24
  resume { ptr, i32 } %23
}